; Function Attrs: mustprogress nounwind uwtable
define internal { i32, ptr } @_ZN12_GLOBAL__N_119FileWithFixedStatus5closeEv(ptr nocapture noundef nonnull readonly align 8 dereferenceable(104) %0) unnamed_addr #0 align 2 {
  %2 = getelementptr inbounds nuw i8, ptr %0, i64 8
  %3 = load ptr, ptr %2, align 8
  %4 = load ptr, ptr %3, align 8
  %5 = getelementptr inbounds i8, ptr %4, i64 40
  %6 = load ptr, ptr %5, align 8
  %7 = tail call { i32, ptr } %6(ptr noundef nonnull align 8 dereferenceable(8) %3) #27
  ret { i32, ptr } %7
}